target datalayout = "e-m:e-p270:32:32-p271:32:32-p272:64:64-i64:64-i128:128-f80:128-n8:16:32:64-S128"
target triple = "x86_64-pc-linux-gnu"

%struct.ev_token_bucket = type { i64, i64, i32 }
%struct.ev_token_bucket_cfg = type { i64, i64, i64, i64, %struct.timeval, i32 }
%struct.timeval = type { i64, i64 }

; Function Attrs: nounwind uwtable
define hidden i32 @ev_token_bucket_init_(ptr noundef %0, ptr noundef %1, i32 noundef %2, i32 noundef %3) #0 {
  %5 = alloca ptr, align 8
  %6 = alloca ptr, align 8
  %7 = alloca i32, align 4
  %8 = alloca i32, align 4
  store ptr %0, ptr %5, align 8
  store ptr %1, ptr %6, align 8
  store i32 %2, ptr %7, align 4
  store i32 %3, ptr %8, align 4
  %9 = load i32, ptr %8, align 4
  %10 = icmp ne i32 %9, 0
  br i1 %10, label %11, label %40

11:                                               ; preds = %4
  %12 = load ptr, ptr %5, align 8
  %13 = getelementptr inbounds nuw %struct.ev_token_bucket, ptr %12, i32 0, i32 0
  %14 = load i64, ptr %13, align 8
  %15 = load ptr, ptr %6, align 8
  %16 = getelementptr inbounds nuw %struct.ev_token_bucket_cfg, ptr %15, i32 0, i32 1
  %17 = load i64, ptr %16, align 8
  %18 = icmp sgt i64 %14, %17
  br i1 %18, label %19, label %25

19:                                               ; preds = %11
  %20 = load ptr, ptr %6, align 8
  %21 = getelementptr inbounds nuw %struct.ev_token_bucket_cfg, ptr %20, i32 0, i32 1
  %22 = load i64, ptr %21, align 8
  %23 = load ptr, ptr %5, align 8
  %24 = getelementptr inbounds nuw %struct.ev_token_bucket, ptr %23, i32 0, i32 0
  store i64 %22, ptr %24, align 8
  br label %25

25:                                               ; preds = %19, %11
  %26 = load ptr, ptr %5, align 8
  %27 = getelementptr inbounds nuw %struct.ev_token_bucket, ptr %26, i32 0, i32 1
  %28 = load i64, ptr %27, align 8
  %29 = load ptr, ptr %6, align 8
  %30 = getelementptr inbounds nuw %struct.ev_token_bucket_cfg, ptr %29, i32 0, i32 3
  %31 = load i64, ptr %30, align 8
  %32 = icmp sgt i64 %28, %31
  br i1 %32, label %33, label %39

33:                                               ; preds = %25
  %34 = load ptr, ptr %6, align 8
  %35 = getelementptr inbounds nuw %struct.ev_token_bucket_cfg, ptr %34, i32 0, i32 3
  %36 = load i64, ptr %35, align 8
  %37 = load ptr, ptr %5, align 8
  %38 = getelementptr inbounds nuw %struct.ev_token_bucket, ptr %37, i32 0, i32 1
  store i64 %36, ptr %38, align 8
  br label %39

39:                                               ; preds = %33, %25
  br label %54

40:                                               ; preds = %4
  %41 = load ptr, ptr %6, align 8
  %42 = getelementptr inbounds nuw %struct.ev_token_bucket_cfg, ptr %41, i32 0, i32 0
  %43 = load i64, ptr %42, align 8
  %44 = load ptr, ptr %5, align 8
  %45 = getelementptr inbounds nuw %struct.ev_token_bucket, ptr %44, i32 0, i32 0
  store i64 %43, ptr %45, align 8
  %46 = load ptr, ptr %6, align 8
  %47 = getelementptr inbounds nuw %struct.ev_token_bucket_cfg, ptr %46, i32 0, i32 2
  %48 = load i64, ptr %47, align 8
  %49 = load ptr, ptr %5, align 8
  %50 = getelementptr inbounds nuw %struct.ev_token_bucket, ptr %49, i32 0, i32 1
  store i64 %48, ptr %50, align 8
  %51 = load i32, ptr %7, align 4
  %52 = load ptr, ptr %5, align 8
  %53 = getelementptr inbounds nuw %struct.ev_token_bucket, ptr %52, i32 0, i32 2
  store i32 %51, ptr %53, align 8
  br label %54

54:                                               ; preds = %40, %39
  ret i32 0
}