; Function Attrs: mustprogress nofree norecurse nosync nounwind willreturn memory(argmem: readwrite) uwtable
define hidden noundef i32 @ev_token_bucket_init_(ptr noundef captures(none) %0, ptr noundef readonly captures(none) %1, i32 noundef %2, i32 noundef %3) local_unnamed_addr #0 {
  %.not = icmp eq i32 %3, 0
  br i1 %.not, label %18, label %5

5:                                                ; preds = %4
  %6 = load i64, ptr %0, align 8
  %7 = getelementptr inbounds nuw i8, ptr %1, i64 8
  %8 = load i64, ptr %7, align 8
  %9 = icmp sgt i64 %6, %8
  br i1 %9, label %10, label %11

10:                                               ; preds = %5
  store i64 %8, ptr %0, align 8
  br label %11

11:                                               ; preds = %10, %5
  %12 = getelementptr inbounds nuw i8, ptr %0, i64 8
  %13 = load i64, ptr %12, align 8
  %14 = getelementptr inbounds nuw i8, ptr %1, i64 24
  %15 = load i64, ptr %14, align 8
  %16 = icmp sgt i64 %13, %15
  br i1 %16, label %17, label %24

17:                                               ; preds = %11
  store i64 %15, ptr %12, align 8
  br label %24

18:                                               ; preds = %4
  %19 = load i64, ptr %1, align 8
  store i64 %19, ptr %0, align 8
  %20 = getelementptr inbounds nuw i8, ptr %1, i64 16
  %21 = load i64, ptr %20, align 8
  %22 = getelementptr inbounds nuw i8, ptr %0, i64 8
  store i64 %21, ptr %22, align 8
  %23 = getelementptr inbounds nuw i8, ptr %0, i64 16
  store i32 %2, ptr %23, align 8
  br label %24

24:                                               ; preds = %11, %17, %18
  ret i32 0
}